target datalayout = "e-m:e-p270:32:32-p271:32:32-p272:64:64-i64:64-i128:128-f80:128-n8:16:32:64-S128"
target triple = "x86_64-pc-linux-gnu"

%"class.std::__cxx11::basic_string" = type { %"struct.std::__cxx11::basic_string<char>::_Alloc_hider", i64, %union.anon }
%"struct.std::__cxx11::basic_string<char>::_Alloc_hider" = type { ptr }
%union.anon = type { i64, [8 x i8] }
%"class.std::vector.29" = type { %"struct.std::_Vector_base.30" }
%"struct.std::_Vector_base.30" = type { %"struct.std::_Vector_base<int, std::allocator<int>>::_Vector_impl" }
%"struct.std::_Vector_base<int, std::allocator<int>>::_Vector_impl" = type { %"struct.std::_Vector_base<int, std::allocator<int>>::_Vector_impl_data" }
%"struct.std::_Vector_base<int, std::allocator<int>>::_Vector_impl_data" = type { ptr, ptr, ptr }
%"struct.Yosys::hashlib::hash_ops" = type { i8 }
%"struct.(anonymous namespace)::SimWorker" = type { %"struct.(anonymous namespace)::SimShared.base", ptr, %"class.Yosys::hashlib::pool", %"class.Yosys::hashlib::pool", %"class.Yosys::hashlib::pool", %"class.Yosys::hashlib::pool", %"class.std::__cxx11::basic_string", %"class.std::__cxx11::basic_string", %"class.std::__cxx11::basic_string", %"class.std::__cxx11::basic_string", %"class.std::__cxx11::basic_string" }
%"struct.(anonymous namespace)::SimShared.base" = type <{ i8, i8, i8, i8, i8, i8, [2 x i8], i32, [4 x i8], ptr, double, double, i32, i8, [3 x i8], %"class.std::vector.9", %"class.std::vector.14", i8, i8, i8, i8, i32, i32, [4 x i8], %"class.std::vector.19", %"class.std::vector.24", i8, i8 }>
%"class.std::vector.9" = type { %"struct.std::_Vector_base.10" }
%"struct.std::_Vector_base.10" = type { %"struct.std::_Vector_base<std::unique_ptr<(anonymous namespace)::OutputWriter>, std::allocator<std::unique_ptr<(anonymous namespace)::OutputWriter>>>::_Vector_impl" }
%"struct.std::_Vector_base<std::unique_ptr<(anonymous namespace)::OutputWriter>, std::allocator<std::unique_ptr<(anonymous namespace)::OutputWriter>>>::_Vector_impl" = type { %"struct.std::_Vector_base<std::unique_ptr<(anonymous namespace)::OutputWriter>, std::allocator<std::unique_ptr<(anonymous namespace)::OutputWriter>>>::_Vector_impl_data" }
%"struct.std::_Vector_base<std::unique_ptr<(anonymous namespace)::OutputWriter>, std::allocator<std::unique_ptr<(anonymous namespace)::OutputWriter>>>::_Vector_impl_data" = type { ptr, ptr, ptr }
%"class.std::vector.14" = type { %"struct.std::_Vector_base.15" }
%"struct.std::_Vector_base.15" = type { %"struct.std::_Vector_base<std::pair<int, std::map<int, Yosys::RTLIL::Const>>, std::allocator<std::pair<int, std::map<int, Yosys::RTLIL::Const>>>>::_Vector_impl" }
%"struct.std::_Vector_base<std::pair<int, std::map<int, Yosys::RTLIL::Const>>, std::allocator<std::pair<int, std::map<int, Yosys::RTLIL::Const>>>>::_Vector_impl" = type { %"struct.std::_Vector_base<std::pair<int, std::map<int, Yosys::RTLIL::Const>>, std::allocator<std::pair<int, std::map<int, Yosys::RTLIL::Const>>>>::_Vector_impl_data" }
%"struct.std::_Vector_base<std::pair<int, std::map<int, Yosys::RTLIL::Const>>, std::allocator<std::pair<int, std::map<int, Yosys::RTLIL::Const>>>>::_Vector_impl_data" = type { ptr, ptr, ptr }
%"class.std::vector.19" = type { %"struct.std::_Vector_base.20" }
%"struct.std::_Vector_base.20" = type { %"struct.std::_Vector_base<(anonymous namespace)::TriggeredAssertion, std::allocator<(anonymous namespace)::TriggeredAssertion>>::_Vector_impl" }
%"struct.std::_Vector_base<(anonymous namespace)::TriggeredAssertion, std::allocator<(anonymous namespace)::TriggeredAssertion>>::_Vector_impl" = type { %"struct.std::_Vector_base<(anonymous namespace)::TriggeredAssertion, std::allocator<(anonymous namespace)::TriggeredAssertion>>::_Vector_impl_data" }
%"struct.std::_Vector_base<(anonymous namespace)::TriggeredAssertion, std::allocator<(anonymous namespace)::TriggeredAssertion>>::_Vector_impl_data" = type { ptr, ptr, ptr }
%"class.std::vector.24" = type { %"struct.std::_Vector_base.25" }
%"struct.std::_Vector_base.25" = type { %"struct.std::_Vector_base<(anonymous namespace)::DisplayOutput, std::allocator<(anonymous namespace)::DisplayOutput>>::_Vector_impl" }
%"struct.std::_Vector_base<(anonymous namespace)::DisplayOutput, std::allocator<(anonymous namespace)::DisplayOutput>>::_Vector_impl" = type { %"struct.std::_Vector_base<(anonymous namespace)::DisplayOutput, std::allocator<(anonymous namespace)::DisplayOutput>>::_Vector_impl_data" }
%"struct.std::_Vector_base<(anonymous namespace)::DisplayOutput, std::allocator<(anonymous namespace)::DisplayOutput>>::_Vector_impl_data" = type { ptr, ptr, ptr }
%"class.Yosys::hashlib::pool" = type <{ %"class.std::vector.29", %"class.std::vector.34", %"struct.Yosys::hashlib::hash_ops", [7 x i8] }>
%"class.std::vector.34" = type { %"struct.std::_Vector_base.35" }
%"struct.std::_Vector_base.35" = type { %"struct.std::_Vector_base<Yosys::hashlib::pool<Yosys::RTLIL::IdString>::entry_t, std::allocator<Yosys::hashlib::pool<Yosys::RTLIL::IdString>::entry_t>>::_Vector_impl" }
%"struct.std::_Vector_base<Yosys::hashlib::pool<Yosys::RTLIL::IdString>::entry_t, std::allocator<Yosys::hashlib::pool<Yosys::RTLIL::IdString>::entry_t>>::_Vector_impl" = type { %"struct.std::_Vector_base<Yosys::hashlib::pool<Yosys::RTLIL::IdString>::entry_t, std::allocator<Yosys::hashlib::pool<Yosys::RTLIL::IdString>::entry_t>>::_Vector_impl_data" }
%"struct.std::_Vector_base<Yosys::hashlib::pool<Yosys::RTLIL::IdString>::entry_t, std::allocator<Yosys::hashlib::pool<Yosys::RTLIL::IdString>::entry_t>>::_Vector_impl_data" = type { ptr, ptr, ptr }
%"struct.(anonymous namespace)::SimShared" = type <{ i8, i8, i8, i8, i8, i8, [2 x i8], i32, [4 x i8], ptr, double, double, i32, i8, [3 x i8], %"class.std::vector.9", %"class.std::vector.14", i8, i8, i8, i8, i32, i32, [4 x i8], %"class.std::vector.19", %"class.std::vector.24", i8, i8, [6 x i8] }>

@.str.294 = private unnamed_addr constant [25 x i8] c"\0A-- ph1 (initialize) --\0A\00", align 1
@.str.295 = private unnamed_addr constant [25 x i8] c"\0A-- ph2 (initialize) --\0A\00", align 1
@.str.296 = private unnamed_addr constant [25 x i8] c"\0A-- ph3 (initialize) --\0A\00", align 1

; Function Attrs: mustprogress uwtable
define internal void @_ZN12_GLOBAL__N_19SimWorker22initialize_stable_pastEv(ptr noundef nonnull align 8 dereferenceable(560) %0) #4 align 2 {
  %2 = alloca ptr, align 8
  store ptr %0, ptr %2, align 8
  %3 = load ptr, ptr %2, align 8
  br label %4

4:                                                ; preds = %21, %1
  %5 = getelementptr inbounds %"struct.(anonymous namespace)::SimShared", ptr %3, i32 0, i32 0
  %6 = load i8, ptr %5, align 8
  %7 = trunc i8 %6 to i1
  br i1 %7, label %8, label %9

8:                                                ; preds = %4
  call void (ptr, ...) @_ZN5Yosys3logEPKcz(ptr noundef @.str.294)
  br label %9

9:                                                ; preds = %8, %4
  %10 = getelementptr inbounds %"struct.(anonymous namespace)::SimWorker", ptr %3, i32 0, i32 1
  %11 = load ptr, ptr %10, align 8
  call void @_ZN12_GLOBAL__N_111SimInstance10update_ph1Ev(ptr noundef nonnull align 8 dereferenceable(1368) %11)
  %12 = getelementptr inbounds %"struct.(anonymous namespace)::SimShared", ptr %3, i32 0, i32 0
  %13 = load i8, ptr %12, align 8
  %14 = trunc i8 %13 to i1
  br i1 %14, label %15, label %16

15:                                               ; preds = %9
  call void (ptr, ...) @_ZN5Yosys3logEPKcz(ptr noundef @.str.295)
  br label %16

16:                                               ; preds = %15, %9
  %17 = getelementptr inbounds %"struct.(anonymous namespace)::SimWorker", ptr %3, i32 0, i32 1
  %18 = load ptr, ptr %17, align 8
  %19 = call noundef zeroext i1 @_ZN12_GLOBAL__N_111SimInstance10update_ph2Ebb(ptr noundef nonnull align 8 dereferenceable(1368) %18, i1 noundef zeroext false, i1 noundef zeroext true)
  br i1 %19, label %21, label %20

20:                                               ; preds = %16
  br label %22

21:                                               ; preds = %16
  br label %4, !llvm.loop !230

22:                                               ; preds = %20
  %23 = getelementptr inbounds %"struct.(anonymous namespace)::SimShared", ptr %3, i32 0, i32 0
  %24 = load i8, ptr %23, align 8
  %25 = trunc i8 %24 to i1
  br i1 %25, label %26, label %27

26:                                               ; preds = %22
  call void (ptr, ...) @_ZN5Yosys3logEPKcz(ptr noundef @.str.296)
  br label %27

27:                                               ; preds = %26, %22
  %28 = getelementptr inbounds %"struct.(anonymous namespace)::SimWorker", ptr %3, i32 0, i32 1
  %29 = load ptr, ptr %28, align 8
  call void @_ZN12_GLOBAL__N_111SimInstance10update_ph3Eb(ptr noundef nonnull align 8 dereferenceable(1368) %29, i1 noundef zeroext true)
  ret void
}