; Function Attrs: mustprogress uwtable
define internal fastcc void @_ZN12_GLOBAL__N_19SimWorker22initialize_stable_pastEv(ptr nocapture noundef nonnull readonly align 8 dereferenceable(560) %0) unnamed_addr #4 align 2 {
  %2 = getelementptr inbounds i8, ptr %0, i64 168
  br label %3

3:                                                ; preds = %12, %1
  %4 = load i8, ptr %0, align 8
  %5 = and i8 %4, 1
  %.not = icmp eq i8 %5, 0
  br i1 %.not, label %7, label %6

6:                                                ; preds = %3
  tail call void (ptr, ...) @_ZN5Yosys3logEPKcz(ptr noundef nonnull @.str.294)
  br label %7

7:                                                ; preds = %6, %3
  %8 = load ptr, ptr %2, align 8
  tail call fastcc void @_ZN12_GLOBAL__N_111SimInstance10update_ph1Ev(ptr noundef nonnull align 8 dereferenceable(1368) %8)
  %9 = load i8, ptr %0, align 8
  %10 = and i8 %9, 1
  %.not1 = icmp eq i8 %10, 0
  br i1 %.not1, label %12, label %11

11:                                               ; preds = %7
  tail call void (ptr, ...) @_ZN5Yosys3logEPKcz(ptr noundef nonnull @.str.295)
  br label %12

12:                                               ; preds = %11, %7
  %13 = load ptr, ptr %2, align 8
  %14 = tail call fastcc noundef zeroext i1 @_ZN12_GLOBAL__N_111SimInstance10update_ph2Ebb(ptr noundef nonnull align 8 dereferenceable(1368) %13, i1 noundef zeroext false, i1 noundef zeroext true)
  br i1 %14, label %3, label %15, !llvm.loop !127

15:                                               ; preds = %12
  %16 = load i8, ptr %0, align 8
  %17 = and i8 %16, 1
  %.not2 = icmp eq i8 %17, 0
  br i1 %.not2, label %19, label %18

18:                                               ; preds = %15
  tail call void (ptr, ...) @_ZN5Yosys3logEPKcz(ptr noundef nonnull @.str.296)
  br label %19

19:                                               ; preds = %18, %15
  %20 = load ptr, ptr %2, align 8
  tail call fastcc void @_ZN12_GLOBAL__N_111SimInstance10update_ph3Eb(ptr noundef nonnull align 8 dereferenceable(1368) %20, i1 noundef zeroext true)
  ret void
}